; Function Attrs: mustprogress nofree norecurse nounwind willreturn memory(readwrite, inaccessiblemem: none) uwtable
define range(i32 0, 2) i32 @grpc_byte_buffer_reader_next(ptr noundef captures(none) %0, ptr noundef writeonly captures(none) %1) local_unnamed_addr #7 {
  %3 = load ptr, ptr %0, align 8, !tbaa !3
  %4 = getelementptr inbounds nuw i8, ptr %3, i64 8
  %5 = load i32, ptr %4, align 8, !tbaa !9
  %cond = icmp eq i32 %5, 0
  br i1 %cond, label %6, label %25

6:                                                ; preds = %2
  %7 = getelementptr inbounds nuw i8, ptr %0, i64 8
  %8 = load ptr, ptr %7, align 8, !tbaa !12
  %9 = getelementptr inbounds nuw i8, ptr %0, i64 16
  %10 = load i32, ptr %9, align 8, !tbaa !13
  %11 = zext i32 %10 to i64
  %12 = getelementptr inbounds nuw i8, ptr %8, i64 40
  %13 = load i64, ptr %12, align 8, !tbaa !14
  %14 = icmp ugt i64 %13, %11
  br i1 %14, label %15, label %25

15:                                               ; preds = %6
  %16 = getelementptr inbounds nuw i8, ptr %8, i64 32
  %17 = load ptr, ptr %16, align 8, !tbaa !18
  %18 = getelementptr inbounds nuw %struct.grpc_slice, ptr %17, i64 %11
  %19 = load ptr, ptr %18, align 8, !tbaa !20
  %20 = icmp ugt ptr %19, inttoptr (i64 1 to ptr)
  br i1 %20, label %21, label %.thread

21:                                               ; preds = %15
  %22 = atomicrmw add ptr %19, i64 1 monotonic, align 8
  br label %.thread

.thread:                                          ; preds = %21, %15
  tail call void @llvm.memcpy.p0.p0.i64(ptr noundef nonnull align 8 dereferenceable(32) %1, ptr noundef nonnull align 8 dereferenceable(32) %18, i64 32, i1 false), !tbaa.struct !23
  %23 = load i32, ptr %9, align 8, !tbaa !13
  %24 = add i32 %23, 1
  store i32 %24, ptr %9, align 8, !tbaa !13
  br label %25

25:                                               ; preds = %6, %2, %.thread
  %.1 = phi i32 [ 1, %.thread ], [ 0, %2 ], [ 0, %6 ]
  ret i32 %.1
}